target datalayout = "e-m:e-p270:32:32-p271:32:32-p272:64:64-i64:64-i128:128-f80:128-n8:16:32:64-S128"
target triple = "x86_64-pc-linux-gnu"

@libdeflate_default_malloc_func = hidden global ptr @malloc, align 8
@libdeflate_default_free_func = hidden global ptr @free, align 8

; Function Attrs: nounwind allocsize(0)
declare noalias ptr @malloc(i64 noundef) #0

; Function Attrs: nounwind
declare void @free(ptr noundef) #1

; Function Attrs: nounwind uwtable
define hidden ptr @libdeflate_aligned_malloc(ptr noundef %0, i64 noundef %1, i64 noundef %2) #2 {
  %4 = alloca ptr, align 8
  %5 = alloca i64, align 8
  %6 = alloca i64, align 8
  %7 = alloca ptr, align 8
  %8 = alloca ptr, align 8
  store ptr %0, ptr %4, align 8, !tbaa !4
  store i64 %1, ptr %5, align 8, !tbaa !8
  store i64 %2, ptr %6, align 8, !tbaa !8
  call void @llvm.lifetime.start.p0(i64 8, ptr %7) #4
  %9 = load ptr, ptr %4, align 8, !tbaa !4
  %10 = load i64, ptr %5, align 8, !tbaa !8
  %11 = add i64 8, %10
  %12 = sub i64 %11, 1
  %13 = load i64, ptr %6, align 8, !tbaa !8
  %14 = add i64 %12, %13
  %15 = call ptr %9(i64 noundef %14)
  store ptr %15, ptr %7, align 8, !tbaa !4
  %16 = load ptr, ptr %7, align 8, !tbaa !4
  %17 = icmp ne ptr %16, null
  br i1 %17, label %18, label %34

18:                                               ; preds = %3
  call void @llvm.lifetime.start.p0(i64 8, ptr %8) #4
  %19 = load ptr, ptr %7, align 8, !tbaa !4
  store ptr %19, ptr %8, align 8, !tbaa !4
  %20 = load ptr, ptr %7, align 8, !tbaa !4
  %21 = ptrtoint ptr %20 to i64
  %22 = add i64 %21, 8
  %23 = load i64, ptr %5, align 8, !tbaa !8
  %24 = add i64 %22, %23
  %25 = sub i64 %24, 1
  %26 = load i64, ptr %5, align 8, !tbaa !8
  %27 = sub i64 %26, 1
  %28 = xor i64 %27, -1
  %29 = and i64 %25, %28
  %30 = inttoptr i64 %29 to ptr
  store ptr %30, ptr %7, align 8, !tbaa !4
  %31 = load ptr, ptr %8, align 8, !tbaa !4
  %32 = load ptr, ptr %7, align 8, !tbaa !4
  %33 = getelementptr inbounds ptr, ptr %32, i64 -1
  store ptr %31, ptr %33, align 8, !tbaa !4
  call void @llvm.lifetime.end.p0(i64 8, ptr %8) #4
  br label %34

34:                                               ; preds = %18, %3
  %35 = load ptr, ptr %7, align 8, !tbaa !4
  call void @llvm.lifetime.end.p0(i64 8, ptr %7) #4
  ret ptr %35
}

; Function Attrs: nocallback nofree nosync nounwind willreturn memory(argmem: readwrite)
declare void @llvm.lifetime.start.p0(i64 immarg, ptr captures(none)) #3

; Function Attrs: nocallback nofree nosync nounwind willreturn memory(argmem: readwrite)
declare void @llvm.lifetime.end.p0(i64 immarg, ptr captures(none)) #3

; Function Attrs: nounwind uwtable
define hidden void @libdeflate_aligned_free(ptr noundef %0, ptr noundef %1) #2 {
  %3 = alloca ptr, align 8
  %4 = alloca ptr, align 8
  store ptr %0, ptr %3, align 8, !tbaa !4
  store ptr %1, ptr %4, align 8, !tbaa !4
  %5 = load ptr, ptr %3, align 8, !tbaa !4
  %6 = load ptr, ptr %4, align 8, !tbaa !4
  %7 = getelementptr inbounds ptr, ptr %6, i64 -1
  %8 = load ptr, ptr %7, align 8, !tbaa !4
  call void %5(ptr noundef %8)
  ret void
}

; Function Attrs: nounwind uwtable
define void @libdeflate_set_memory_allocator(ptr noundef %0, ptr noundef %1) #2 {
  %3 = alloca ptr, align 8
  %4 = alloca ptr, align 8
  store ptr %0, ptr %3, align 8, !tbaa !4
  store ptr %1, ptr %4, align 8, !tbaa !4
  %5 = load ptr, ptr %3, align 8, !tbaa !4
  store ptr %5, ptr @libdeflate_default_malloc_func, align 8, !tbaa !4
  %6 = load ptr, ptr %4, align 8, !tbaa !4
  store ptr %6, ptr @libdeflate_default_free_func, align 8, !tbaa !4
  ret void
}


!llvm.module.flags = !{!0, !1, !2}
!llvm.ident = !{!3}

!0 = !{i32 1, !"wchar_size", i32 4}
!1 = !{i32 8, !"PIC Level", i32 2}
!2 = !{i32 7, !"uwtable", i32 2}
!3 = !{!"Ubuntu clang version 21.0.0 (++20250204042402+749372ba2423-1~exp1~20250204042535.2211)"}
!4 = !{!5, !5, i64 0}
!5 = !{!"any pointer", !6, i64 0}
!6 = !{!"omnipotent char", !7, i64 0}
!7 = !{!"Simple C/C++ TBAA"}
!8 = !{!9, !9, i64 0}
!9 = !{!"long", !6, i64 0}
