; ModuleID = 'bench/libdeflate/original/utils.ll'
source_filename = "bench/libdeflate/original/utils.ll"
target datalayout = "e-m:e-p270:32:32-p271:32:32-p272:64:64-i64:64-i128:128-f80:128-n8:16:32:64-S128"
target triple = "x86_64-pc-linux-gnu"

@libdeflate_default_malloc_func = hidden local_unnamed_addr global ptr @malloc, align 8
@libdeflate_default_free_func = hidden local_unnamed_addr global ptr @free, align 8

; Function Attrs: mustprogress nofree nounwind willreturn allockind("alloc,uninitialized") allocsize(0) memory(inaccessiblemem: readwrite)
declare noalias noundef ptr @malloc(i64 noundef) #0

; Function Attrs: mustprogress nounwind willreturn allockind("free") memory(argmem: readwrite, inaccessiblemem: readwrite)
declare void @free(ptr allocptr noundef captures(none)) #1

; Function Attrs: nounwind uwtable
define hidden ptr @libdeflate_aligned_malloc(ptr noundef readonly captures(none) %0, i64 noundef %1, i64 noundef %2) local_unnamed_addr #2 {
  %4 = add i64 %1, 7
  %5 = add i64 %4, %2
  %6 = tail call ptr %0(i64 noundef %5) #4
  %.not = icmp eq ptr %6, null
  br i1 %.not, label %14, label %7

7:                                                ; preds = %3
  %8 = ptrtoint ptr %6 to i64
  %9 = add i64 %4, %8
  %10 = sub i64 0, %1
  %11 = and i64 %9, %10
  %12 = inttoptr i64 %11 to ptr
  %13 = getelementptr inbounds i8, ptr %12, i64 -8
  store ptr %6, ptr %13, align 8, !tbaa !4
  br label %14

14:                                               ; preds = %7, %3
  %.0 = phi ptr [ %12, %7 ], [ null, %3 ]
  ret ptr %.0
}

; Function Attrs: nounwind uwtable
define hidden void @libdeflate_aligned_free(ptr noundef readonly captures(none) %0, ptr noundef readonly captures(none) %1) local_unnamed_addr #2 {
  %3 = getelementptr inbounds i8, ptr %1, i64 -8
  %4 = load ptr, ptr %3, align 8, !tbaa !4
  tail call void %0(ptr noundef %4) #4
  ret void
}

; Function Attrs: mustprogress nofree norecurse nosync nounwind willreturn memory(write, argmem: none, inaccessiblemem: none) uwtable
define void @libdeflate_set_memory_allocator(ptr noundef %0, ptr noundef %1) local_unnamed_addr #3 {
  store ptr %0, ptr @libdeflate_default_malloc_func, align 8, !tbaa !4
  store ptr %1, ptr @libdeflate_default_free_func, align 8, !tbaa !4
  ret void
}


!llvm.module.flags = !{!0, !1, !2}
!llvm.ident = !{!3}

!0 = !{i32 1, !"wchar_size", i32 4}
!1 = !{i32 8, !"PIC Level", i32 2}
!2 = !{i32 7, !"uwtable", i32 2}
!3 = !{!"Ubuntu clang version 21.0.0 (++20250204042402+749372ba2423-1~exp1~20250204042535.2211)"}
!4 = !{!5, !5, i64 0}
!5 = !{!"any pointer", !6, i64 0}
!6 = !{!"omnipotent char", !7, i64 0}
!7 = !{!"Simple C/C++ TBAA"}
